; Function Attrs: mustprogress nounwind uwtable
define void @_ZN8facebook5velox10expression9calculate6Parser6yypop_Ei(ptr nocapture noundef nonnull align 8 dereferenceable(40) %this, i32 noundef %n) local_unnamed_addr #3 align 2 personality ptr @__gxx_personality_v0 {
entry:
  %cmp2.i = icmp sgt i32 %n, 0
  br i1 %cmp2.i, label %for.body.lr.ph.i, label %_ZN8facebook5velox10expression9calculate6Parser5stackINS3_17stack_symbol_typeESt6vectorIS5_SaIS5_EEE3popEl.exit

for.body.lr.ph.i:                                 ; preds = %entry
  %conv = zext nneg i32 %n to i64
  %_M_finish.i.i = getelementptr inbounds i8, ptr %this, i64 16
  br label %for.body.i

for.body.i:                                       ; preds = %_ZNSt6vectorIN8facebook5velox10expression9calculate6Parser17stack_symbol_typeESaIS5_EE8pop_backEv.exit.i, %for.body.lr.ph.i
  %n.addr.03.i = phi i64 [ %conv, %for.body.lr.ph.i ], [ %dec.i, %_ZNSt6vectorIN8facebook5velox10expression9calculate6Parser17stack_symbol_typeESaIS5_EE8pop_backEv.exit.i ]
  %0 = load ptr, ptr %_M_finish.i.i, align 8
  %incdec.ptr.i.i = getelementptr inbounds i8, ptr %0, i64 -48
  store ptr %incdec.ptr.i.i, ptr %_M_finish.i.i, align 8
  %1 = load i8, ptr %incdec.ptr.i.i, align 1
  %cmp.i.i.i.i.i.i.i.i = icmp eq i8 %1, 0
  br i1 %cmp.i.i.i.i.i.i.i.i, label %_ZNSt6vectorIN8facebook5velox10expression9calculate6Parser17stack_symbol_typeESaIS5_EE8pop_backEv.exit.i, label %_ZNK8facebook5velox10expression9calculate6Parser8by_state4kindEv.exit.i.i.i.i.i.i.i

_ZNK8facebook5velox10expression9calculate6Parser8by_state4kindEv.exit.i.i.i.i.i.i.i: ; preds = %for.body.i
  %idxprom.i.i.i.i.i.i.i.i = sext i8 %1 to i64
  %arrayidx.i.i.i.i.i.i.i.i = getelementptr inbounds [0 x i8], ptr @_ZN8facebook5velox10expression9calculate6Parser7yystos_E, i64 0, i64 %idxprom.i.i.i.i.i.i.i.i
  %2 = load i8, ptr %arrayidx.i.i.i.i.i.i.i.i, align 1
  %cond.i.i.i.i.i.i.i = icmp eq i8 %2, 11
  br i1 %cond.i.i.i.i.i.i.i, label %sw.bb2.i.i.i.i.i.i.i, label %_ZNSt6vectorIN8facebook5velox10expression9calculate6Parser17stack_symbol_typeESaIS5_EE8pop_backEv.exit.i

sw.bb2.i.i.i.i.i.i.i:                             ; preds = %_ZNK8facebook5velox10expression9calculate6Parser8by_state4kindEv.exit.i.i.i.i.i.i.i
  %value3.i.i.i.i.i.i.i = getelementptr inbounds i8, ptr %0, i64 -32
  tail call void @_ZNSt7__cxx1112basic_stringIcSt11char_traitsIcESaIcEED1Ev(ptr noundef nonnull align 8 dereferenceable(32) %value3.i.i.i.i.i.i.i) #25
  br label %_ZNSt6vectorIN8facebook5velox10expression9calculate6Parser17stack_symbol_typeESaIS5_EE8pop_backEv.exit.i

_ZNSt6vectorIN8facebook5velox10expression9calculate6Parser17stack_symbol_typeESaIS5_EE8pop_backEv.exit.i: ; preds = %sw.bb2.i.i.i.i.i.i.i, %_ZNK8facebook5velox10expression9calculate6Parser8by_state4kindEv.exit.i.i.i.i.i.i.i, %for.body.i
  store i8 0, ptr %incdec.ptr.i.i, align 1
  %dec.i = add nsw i64 %n.addr.03.i, -1
  %cmp.i = icmp sgt i64 %n.addr.03.i, 1
  br i1 %cmp.i, label %for.body.i, label %_ZN8facebook5velox10expression9calculate6Parser5stackINS3_17stack_symbol_typeESt6vectorIS5_SaIS5_EEE3popEl.exit, !llvm.loop !6

_ZN8facebook5velox10expression9calculate6Parser5stackINS3_17stack_symbol_typeESt6vectorIS5_SaIS5_EEE3popEl.exit: ; preds = %_ZNSt6vectorIN8facebook5velox10expression9calculate6Parser17stack_symbol_typeESaIS5_EE8pop_backEv.exit.i, %entry
  ret void
}